	.file	"/home/centos/workspace/arrayb_block_partitioning/Emulation-SW/matmul.build/link/int/matmul_partition/matmul_partition.clc.csim_cu-opt.bc"
	.file	1 "/home/centos/workspace/arrayb_block_partitioning/src/matmul.cl"
	.text
.Ltext_begin:
	.data
	.text
	.globl	matmul_partition
	.align	16, 0x90
	.type	matmul_partition,@function
matmul_partition:                       # @matmul_partition
	.cfi_startproc
.Lfunc_begin0:
	.loc	1 76 0                  # /home/centos/workspace/arrayb_block_partitioning/src/matmul.cl:76:0
# BB#0:
	pushq	%rbp
.Ltmp3:
	.cfi_def_cfa_offset 16
.Ltmp4:
	.cfi_offset %rbp, -16
	movq	%rsp, %rbp
.Ltmp5:
	.cfi_def_cfa_register %rbp
	andq	$-512, %rsp             # imm = 0xFFFFFFFFFFFFFE00
	pushq	%r15
	pushq	%r14
	pushq	%r13
	pushq	%r12
	pushq	%rbx
	subq	$50136, %rsp            # imm = 0xC3D8
.Ltmp6:
	.cfi_offset %rbx, -56
.Ltmp7:
	.cfi_offset %r12, -48
.Ltmp8:
	.cfi_offset %r13, -40
.Ltmp9:
	.cfi_offset %r14, -32
.Ltmp10:
	.cfi_offset %r15, -24
	#DEBUG_VALUE: matmul_partition:in1 <- RSI+0
	#DEBUG_VALUE: matmul_partition:in2 <- RDX+0
	#DEBUG_VALUE: matmul_partition:out_r <- RCX+0
	#DEBUG_VALUE: matmul_partition:dim <- R8D+0
	movq	%rcx, 200(%rsp)         # 8-byte Spill
.Ltmp11:
	#DEBUG_VALUE: matmul_partition:out_r <- [%rsp+$200]+$0
	movl	%r8d, %eax
	imull	%eax, %eax
	movq	%rax, 216(%rsp)         # 8-byte Spill
	testl	%eax, %eax
.Ltmp12:
	#DEBUG_VALUE: j <- 0+0
	#DEBUG_VALUE: i <- 0+0
	#DEBUG_VALUE: itr <- 0+0
	jle	.LBB0_5
# BB#1:                                 # %.split7.lr.ph
.Ltmp13:
	#DEBUG_VALUE: matmul_partition:in1 <- RSI+0
	#DEBUG_VALUE: matmul_partition:in2 <- RDX+0
	#DEBUG_VALUE: matmul_partition:out_r <- [%rsp+$200]+$0
	#DEBUG_VALUE: matmul_partition:dim <- R8D+0
	#DEBUG_VALUE: itr <- 0+0
	#DEBUG_VALUE: i <- 0+0
	#DEBUG_VALUE: j <- 0+0
	xorl	%r11d, %r11d
	movq	216(%rsp), %r9          # 8-byte Reload
	xorl	%edi, %edi
	xorl	%ecx, %ecx
.Ltmp14:
	.align	16, 0x90
.LBB0_2:                                # %.split7
                                        # =>This Inner Loop Header: Depth=1
	#DEBUG_VALUE: matmul_partition:in2 <- RDX+0
	#DEBUG_VALUE: matmul_partition:out_r <- [%rsp+$200]+$0
	#DEBUG_VALUE: matmul_partition:dim <- R8D+0
	#DEBUG_VALUE: itr <- 0+0
	#DEBUG_VALUE: i <- 0+0
	#DEBUG_VALUE: j <- 0+0
	.loc	1 96 11 prologue_end    # /home/centos/workspace/arrayb_block_partitioning/src/matmul.cl:96:11
	cmpl	%r8d, %edi
.Ltmp15:
	.loc	1 96 9                  # /home/centos/workspace/arrayb_block_partitioning/src/matmul.cl:96:9
	cmovel	%r11d, %edi
.Ltmp16:
	#DEBUG_VALUE: j <- EDI+0
	.loc	1 96 11                 # /home/centos/workspace/arrayb_block_partitioning/src/matmul.cl:96:11
	sete	%al
.Ltmp17:
	.loc	1 96 9                  # /home/centos/workspace/arrayb_block_partitioning/src/matmul.cl:96:9
	movzbl	%al, %eax
	addl	%eax, %ecx
.Ltmp18:
	#DEBUG_VALUE: i <- EAX+0
	.loc	1 100 9                 # /home/centos/workspace/arrayb_block_partitioning/src/matmul.cl:100:9
	movl	%ecx, %eax
.Ltmp19:
	shll	$6, %eax
	.loc	1 100 19                # /home/centos/workspace/arrayb_block_partitioning/src/matmul.cl:100:19
	addl	%edi, %eax
	.loc	1 100 5                 # /home/centos/workspace/arrayb_block_partitioning/src/matmul.cl:100:5
	movslq	%eax, %r10
	.loc	1 100 26                # /home/centos/workspace/arrayb_block_partitioning/src/matmul.cl:100:26
	movl	(%rsi), %eax
	.loc	1 100 24                # /home/centos/workspace/arrayb_block_partitioning/src/matmul.cl:100:24
	movl	%eax, 33280(%rsp,%r10,4)
.Ltmp20:
	.loc	1 95 66                 # /home/centos/workspace/arrayb_block_partitioning/src/matmul.cl:95:66
	incl	%edi
.Ltmp21:
	.loc	1 95 45                 # /home/centos/workspace/arrayb_block_partitioning/src/matmul.cl:95:45
	addq	$4, %rsi
	decq	%r9
.Ltmp22:
	#DEBUG_VALUE: i <- ECX+0
	.loc	1 95 9                  # /home/centos/workspace/arrayb_block_partitioning/src/matmul.cl:95:9
	jne	.LBB0_2
.Ltmp23:
# BB#3:                                 # %.split5.preheader
	#DEBUG_VALUE: matmul_partition:in2 <- RDX+0
	#DEBUG_VALUE: matmul_partition:out_r <- [%rsp+$200]+$0
	#DEBUG_VALUE: matmul_partition:dim <- R8D+0
	xorl	%r10d, %r10d
	movq	216(%rsp), %r9          # 8-byte Reload
	xorl	%esi, %esi
	xorl	%eax, %eax
.Ltmp24:
	.align	16, 0x90
.LBB0_4:                                # %.split5
                                        # =>This Inner Loop Header: Depth=1
	#DEBUG_VALUE: matmul_partition:out_r <- [%rsp+$200]+$0
	#DEBUG_VALUE: matmul_partition:dim <- R8D+0
	.loc	1 107 11                # /home/centos/workspace/arrayb_block_partitioning/src/matmul.cl:107:11
	cmpl	%r8d, %esi
.Ltmp25:
	.loc	1 107 9                 # /home/centos/workspace/arrayb_block_partitioning/src/matmul.cl:107:9
	cmovel	%r10d, %esi
.Ltmp26:
	#DEBUG_VALUE: j <- ESI+0
	.loc	1 107 11                # /home/centos/workspace/arrayb_block_partitioning/src/matmul.cl:107:11
	sete	%cl
.Ltmp27:
	.loc	1 107 9                 # /home/centos/workspace/arrayb_block_partitioning/src/matmul.cl:107:9
	movzbl	%cl, %edi
	addl	%edi, %eax
.Ltmp28:
	#DEBUG_VALUE: i <- EDI+0
	.loc	1 111 9                 # /home/centos/workspace/arrayb_block_partitioning/src/matmul.cl:111:9
	movl	%eax, %edi
.Ltmp29:
	shll	$6, %edi
	.loc	1 111 19                # /home/centos/workspace/arrayb_block_partitioning/src/matmul.cl:111:19
	addl	%esi, %edi
	.loc	1 111 5                 # /home/centos/workspace/arrayb_block_partitioning/src/matmul.cl:111:5
	movslq	%edi, %rdi
	.loc	1 111 26                # /home/centos/workspace/arrayb_block_partitioning/src/matmul.cl:111:26
	movl	(%rdx), %ecx
	.loc	1 111 24                # /home/centos/workspace/arrayb_block_partitioning/src/matmul.cl:111:24
	movl	%ecx, 16896(%rsp,%rdi,4)
.Ltmp30:
	.loc	1 106 66                # /home/centos/workspace/arrayb_block_partitioning/src/matmul.cl:106:66
	incl	%esi
.Ltmp31:
	.loc	1 106 45                # /home/centos/workspace/arrayb_block_partitioning/src/matmul.cl:106:45
	addq	$4, %rdx
	decq	%r9
.Ltmp32:
	#DEBUG_VALUE: i <- EAX+0
	.loc	1 106 9                 # /home/centos/workspace/arrayb_block_partitioning/src/matmul.cl:106:9
	jne	.LBB0_4
.Ltmp33:
.LBB0_5:                                # %._crit_edge23
	#DEBUG_VALUE: matmul_partition:out_r <- [%rsp+$200]+$0
	#DEBUG_VALUE: matmul_partition:dim <- R8D+0
	testl	%r8d, %r8d
.Ltmp34:
	#DEBUG_VALUE: i <- 0+0
	movl	%r8d, 212(%rsp)         # 4-byte Spill
.Ltmp35:
	#DEBUG_VALUE: matmul_partition:dim <- [%rsp+$212]+$0
	je	.LBB0_10
# BB#6:                                 # %.split2.lr.ph.preheader
	#DEBUG_VALUE: matmul_partition:out_r <- [%rsp+$200]+$0
	#DEBUG_VALUE: matmul_partition:dim <- [%rsp+$212]+$0
	#DEBUG_VALUE: i <- 0+0
	movl	212(%rsp), %eax         # 4-byte Folded Reload
	movq	%rax, 224(%rsp)         # 8-byte Spill
	xorl	%ecx, %ecx
	leaq	512(%rsp), %rdx
	.align	16, 0x90
.LBB0_7:                                # %.split2.lr.ph
                                        # =>This Loop Header: Depth=1
                                        #     Child Loop BB0_8 Depth 2
	#DEBUG_VALUE: matmul_partition:out_r <- [%rsp+$200]+$0
	#DEBUG_VALUE: matmul_partition:dim <- [%rsp+$212]+$0
	#DEBUG_VALUE: i <- 0+0
	movq	%rdx, 232(%rsp)         # 8-byte Spill
	movq	%rcx, 240(%rsp)         # 8-byte Spill
	.loc	1 124 19                # /home/centos/workspace/arrayb_block_partitioning/src/matmul.cl:124:19
.Ltmp36:
	shlq	$8, %rcx
	movl	33532(%rsp,%rcx), %esi
	movl	%esi, 500(%rsp)         # 4-byte Spill
	movl	33528(%rsp,%rcx), %esi
	movl	%esi, 496(%rsp)         # 4-byte Spill
	movl	33524(%rsp,%rcx), %esi
	movl	%esi, 492(%rsp)         # 4-byte Spill
	movl	33520(%rsp,%rcx), %esi
	movl	%esi, 488(%rsp)         # 4-byte Spill
	movl	33516(%rsp,%rcx), %esi
	movl	%esi, 484(%rsp)         # 4-byte Spill
	movl	33512(%rsp,%rcx), %esi
	movl	%esi, 480(%rsp)         # 4-byte Spill
	movl	33508(%rsp,%rcx), %esi
	movl	%esi, 476(%rsp)         # 4-byte Spill
	movl	33504(%rsp,%rcx), %esi
	movl	%esi, 472(%rsp)         # 4-byte Spill
	movl	33500(%rsp,%rcx), %esi
	movl	%esi, 468(%rsp)         # 4-byte Spill
	movl	33496(%rsp,%rcx), %esi
	movl	%esi, 464(%rsp)         # 4-byte Spill
	movl	33492(%rsp,%rcx), %esi
	movl	%esi, 460(%rsp)         # 4-byte Spill
	movl	33488(%rsp,%rcx), %esi
	movl	%esi, 456(%rsp)         # 4-byte Spill
	movl	33484(%rsp,%rcx), %esi
	movl	%esi, 452(%rsp)         # 4-byte Spill
	movl	33480(%rsp,%rcx), %esi
	movl	%esi, 448(%rsp)         # 4-byte Spill
	movl	33476(%rsp,%rcx), %esi
	movl	%esi, 444(%rsp)         # 4-byte Spill
	movl	33472(%rsp,%rcx), %esi
	movl	%esi, 440(%rsp)         # 4-byte Spill
	movl	33468(%rsp,%rcx), %esi
	movl	%esi, 436(%rsp)         # 4-byte Spill
	movl	33464(%rsp,%rcx), %esi
	movl	%esi, 432(%rsp)         # 4-byte Spill
	movl	33460(%rsp,%rcx), %esi
	movl	%esi, 428(%rsp)         # 4-byte Spill
	movl	33456(%rsp,%rcx), %esi
	movl	%esi, 424(%rsp)         # 4-byte Spill
	movl	33452(%rsp,%rcx), %esi
	movl	%esi, 420(%rsp)         # 4-byte Spill
	movl	33448(%rsp,%rcx), %esi
	movl	%esi, 416(%rsp)         # 4-byte Spill
	movl	33444(%rsp,%rcx), %esi
	movl	%esi, 412(%rsp)         # 4-byte Spill
	movl	33440(%rsp,%rcx), %esi
	movl	%esi, 408(%rsp)         # 4-byte Spill
	movl	33436(%rsp,%rcx), %esi
	movl	%esi, 404(%rsp)         # 4-byte Spill
	movl	33432(%rsp,%rcx), %esi
	movl	%esi, 400(%rsp)         # 4-byte Spill
	movl	33428(%rsp,%rcx), %esi
	movl	%esi, 396(%rsp)         # 4-byte Spill
	movl	33424(%rsp,%rcx), %esi
	movl	%esi, 392(%rsp)         # 4-byte Spill
	movl	33420(%rsp,%rcx), %esi
	movl	%esi, 388(%rsp)         # 4-byte Spill
	movl	33416(%rsp,%rcx), %esi
	movl	%esi, 384(%rsp)         # 4-byte Spill
	movl	33412(%rsp,%rcx), %esi
	movl	%esi, 380(%rsp)         # 4-byte Spill
	movl	33408(%rsp,%rcx), %esi
	movl	%esi, 376(%rsp)         # 4-byte Spill
	movl	33404(%rsp,%rcx), %esi
	movl	%esi, 372(%rsp)         # 4-byte Spill
	movl	33400(%rsp,%rcx), %esi
	movl	%esi, 368(%rsp)         # 4-byte Spill
	movl	33396(%rsp,%rcx), %esi
	movl	%esi, 364(%rsp)         # 4-byte Spill
	movl	33392(%rsp,%rcx), %esi
	movl	%esi, 360(%rsp)         # 4-byte Spill
	movl	33388(%rsp,%rcx), %esi
	movl	%esi, 356(%rsp)         # 4-byte Spill
	movl	33384(%rsp,%rcx), %esi
	movl	%esi, 352(%rsp)         # 4-byte Spill
	movl	33380(%rsp,%rcx), %esi
	movl	%esi, 348(%rsp)         # 4-byte Spill
	movl	33376(%rsp,%rcx), %esi
	movl	%esi, 344(%rsp)         # 4-byte Spill
	movl	33372(%rsp,%rcx), %esi
	movl	%esi, 340(%rsp)         # 4-byte Spill
	movl	33368(%rsp,%rcx), %esi
	movl	%esi, 336(%rsp)         # 4-byte Spill
	movl	33364(%rsp,%rcx), %esi
	movl	%esi, 332(%rsp)         # 4-byte Spill
	movl	33360(%rsp,%rcx), %esi
	movl	%esi, 328(%rsp)         # 4-byte Spill
	movl	33356(%rsp,%rcx), %esi
	movl	%esi, 324(%rsp)         # 4-byte Spill
	movl	33352(%rsp,%rcx), %esi
	movl	%esi, 320(%rsp)         # 4-byte Spill
	movl	33348(%rsp,%rcx), %esi
	movl	%esi, 316(%rsp)         # 4-byte Spill
	movl	33344(%rsp,%rcx), %esi
	movl	%esi, 312(%rsp)         # 4-byte Spill
	movl	33340(%rsp,%rcx), %esi
	movl	%esi, 308(%rsp)         # 4-byte Spill
	movl	33336(%rsp,%rcx), %esi
	movl	%esi, 304(%rsp)         # 4-byte Spill
	movl	33332(%rsp,%rcx), %esi
	movl	%esi, 300(%rsp)         # 4-byte Spill
	movl	33328(%rsp,%rcx), %esi
	movl	%esi, 296(%rsp)         # 4-byte Spill
	movl	33324(%rsp,%rcx), %esi
	movl	%esi, 292(%rsp)         # 4-byte Spill
	movl	33320(%rsp,%rcx), %esi
	movl	%esi, 288(%rsp)         # 4-byte Spill
	movl	33316(%rsp,%rcx), %esi
	movl	%esi, 284(%rsp)         # 4-byte Spill
	movl	33312(%rsp,%rcx), %esi
	movl	%esi, 280(%rsp)         # 4-byte Spill
	movl	33308(%rsp,%rcx), %esi
	movl	%esi, 276(%rsp)         # 4-byte Spill
	movl	33304(%rsp,%rcx), %esi
	movl	%esi, 272(%rsp)         # 4-byte Spill
	movl	33300(%rsp,%rcx), %esi
	movl	%esi, 268(%rsp)         # 4-byte Spill
	movl	33296(%rsp,%rcx), %esi
	movl	%esi, 264(%rsp)         # 4-byte Spill
	movl	33292(%rsp,%rcx), %esi
	movl	%esi, 260(%rsp)         # 4-byte Spill
	movl	33288(%rsp,%rcx), %esi
	movl	%esi, 256(%rsp)         # 4-byte Spill
	movl	33280(%rsp,%rcx), %esi
.Ltmp37:
	#DEBUG_VALUE: j <- 0+0
	movl	%esi, 252(%rsp)         # 4-byte Spill
	movl	33284(%rsp,%rcx), %ecx
.Ltmp38:
	.loc	1 120 29                # /home/centos/workspace/arrayb_block_partitioning/src/matmul.cl:120:29
	movl	%ecx, 248(%rsp)         # 4-byte Spill
	leaq	33024(%rsp), %r10
.Ltmp39:
	.loc	1 115 9                 # /home/centos/workspace/arrayb_block_partitioning/src/matmul.cl:115:9
	movq	%rdx, %r11
	.align	16, 0x90
.LBB0_8:                                # %.split2
                                        #   Parent Loop BB0_7 Depth=1
                                        # =>  This Inner Loop Header: Depth=2
	#DEBUG_VALUE: matmul_partition:out_r <- [%rsp+$200]+$0
	#DEBUG_VALUE: matmul_partition:dim <- [%rsp+$212]+$0
	#DEBUG_VALUE: i <- 0+0
	#DEBUG_VALUE: j <- 0+0
	movq	%rax, 504(%rsp)         # 8-byte Spill
	movl	-16128(%r10), %ecx
	.loc	1 124 38                # /home/centos/workspace/arrayb_block_partitioning/src/matmul.cl:124:38
.Ltmp40:
	imull	252(%rsp), %ecx         # 4-byte Folded Reload
.Ltmp41:
	#DEBUG_VALUE: k <- 1+0
	#DEBUG_VALUE: result <- ECX+0
	movl	-15872(%r10), %eax
	imull	248(%rsp), %eax         # 4-byte Folded Reload
	.loc	1 124 16                # /home/centos/workspace/arrayb_block_partitioning/src/matmul.cl:124:16
	addl	%ecx, %eax
.Ltmp42:
	#DEBUG_VALUE: k <- 2+0
	#DEBUG_VALUE: result <- EAX+0
	movl	-15616(%r10), %ecx
	.loc	1 124 38                # /home/centos/workspace/arrayb_block_partitioning/src/matmul.cl:124:38
	imull	256(%rsp), %ecx         # 4-byte Folded Reload
	.loc	1 124 16                # /home/centos/workspace/arrayb_block_partitioning/src/matmul.cl:124:16
	addl	%eax, %ecx
.Ltmp43:
	#DEBUG_VALUE: k <- 3+0
	#DEBUG_VALUE: result <- ECX+0
	movl	-15360(%r10), %eax
	.loc	1 124 38                # /home/centos/workspace/arrayb_block_partitioning/src/matmul.cl:124:38
	imull	260(%rsp), %eax         # 4-byte Folded Reload
	.loc	1 124 16                # /home/centos/workspace/arrayb_block_partitioning/src/matmul.cl:124:16
	addl	%ecx, %eax
.Ltmp44:
	#DEBUG_VALUE: k <- 4+0
	#DEBUG_VALUE: result <- EAX+0
	movl	-15104(%r10), %ecx
	.loc	1 124 38                # /home/centos/workspace/arrayb_block_partitioning/src/matmul.cl:124:38
	imull	264(%rsp), %ecx         # 4-byte Folded Reload
.Ltmp45:
	#DEBUG_VALUE: k <- 5+0
	.loc	1 124 16                # /home/centos/workspace/arrayb_block_partitioning/src/matmul.cl:124:16
	addl	%eax, %ecx
.Ltmp46:
	#DEBUG_VALUE: result <- ECX+0
	movl	-14848(%r10), %esi
	.loc	1 124 38                # /home/centos/workspace/arrayb_block_partitioning/src/matmul.cl:124:38
	imull	268(%rsp), %esi         # 4-byte Folded Reload
.Ltmp47:
	#DEBUG_VALUE: k <- 6+0
	.loc	1 124 16                # /home/centos/workspace/arrayb_block_partitioning/src/matmul.cl:124:16
	addl	%ecx, %esi
.Ltmp48:
	#DEBUG_VALUE: result <- ESI+0
	movl	-14592(%r10), %r14d
	.loc	1 124 38                # /home/centos/workspace/arrayb_block_partitioning/src/matmul.cl:124:38
	imull	272(%rsp), %r14d        # 4-byte Folded Reload
	movl	-13312(%r10), %r15d
	imull	292(%rsp), %r15d        # 4-byte Folded Reload
	movl	-13568(%r10), %r9d
	imull	288(%rsp), %r9d         # 4-byte Folded Reload
	movl	-13824(%r10), %edx
	imull	284(%rsp), %edx         # 4-byte Folded Reload
	movl	-14080(%r10), %ebx
	imull	280(%rsp), %ebx         # 4-byte Folded Reload
	movl	-14336(%r10), %eax
	imull	276(%rsp), %eax         # 4-byte Folded Reload
.Ltmp49:
	#DEBUG_VALUE: k <- 12+0
	.loc	1 124 16                # /home/centos/workspace/arrayb_block_partitioning/src/matmul.cl:124:16
	addl	%esi, %r14d
.Ltmp50:
	#DEBUG_VALUE: k <- 14+0
	#DEBUG_VALUE: result <- R14D+0
	movl	-12544(%r10), %edi
	.loc	1 124 38                # /home/centos/workspace/arrayb_block_partitioning/src/matmul.cl:124:38
	imull	304(%rsp), %edi         # 4-byte Folded Reload
	movl	-12800(%r10), %ecx
	imull	300(%rsp), %ecx         # 4-byte Folded Reload
	movl	-13056(%r10), %esi
	imull	296(%rsp), %esi         # 4-byte Folded Reload
	movl	-12288(%r10), %r12d
	imull	308(%rsp), %r12d        # 4-byte Folded Reload
	.loc	1 124 16                # /home/centos/workspace/arrayb_block_partitioning/src/matmul.cl:124:16
	addl	%eax, %r14d
.Ltmp51:
	#DEBUG_VALUE: k <- 20+0
	addl	%ebx, %r14d
.Ltmp52:
	#DEBUG_VALUE: k <- 21+0
	addl	%edx, %r14d
.Ltmp53:
	#DEBUG_VALUE: k <- 22+0
	addl	%r9d, %r14d
.Ltmp54:
	#DEBUG_VALUE: k <- 23+0
	addl	%r15d, %r14d
.Ltmp55:
	#DEBUG_VALUE: k <- 16+0
	addl	%esi, %r14d
.Ltmp56:
	#DEBUG_VALUE: k <- 17+0
	addl	%ecx, %r14d
.Ltmp57:
	#DEBUG_VALUE: k <- 18+0
	addl	%edi, %r14d
.Ltmp58:
	#DEBUG_VALUE: k <- 19+0
	movl	-11264(%r10), %r13d
	.loc	1 124 38                # /home/centos/workspace/arrayb_block_partitioning/src/matmul.cl:124:38
	imull	324(%rsp), %r13d        # 4-byte Folded Reload
	movl	-11520(%r10), %edi
	imull	320(%rsp), %edi         # 4-byte Folded Reload
	movl	-11776(%r10), %edx
	imull	316(%rsp), %edx         # 4-byte Folded Reload
	movl	-12032(%r10), %r9d
	imull	312(%rsp), %r9d         # 4-byte Folded Reload
	.loc	1 124 16                # /home/centos/workspace/arrayb_block_partitioning/src/matmul.cl:124:16
	addl	%r12d, %r14d
.Ltmp59:
	#DEBUG_VALUE: k <- 24+0
	movl	-9984(%r10), %r15d
	.loc	1 124 38                # /home/centos/workspace/arrayb_block_partitioning/src/matmul.cl:124:38
	imull	344(%rsp), %r15d        # 4-byte Folded Reload
	movl	-10240(%r10), %r12d
	imull	340(%rsp), %r12d        # 4-byte Folded Reload
	movl	-10496(%r10), %r8d
	imull	336(%rsp), %r8d         # 4-byte Folded Reload
	movl	-10752(%r10), %ecx
	imull	332(%rsp), %ecx         # 4-byte Folded Reload
	movl	-11008(%r10), %ebx
	imull	328(%rsp), %ebx         # 4-byte Folded Reload
	.loc	1 124 16                # /home/centos/workspace/arrayb_block_partitioning/src/matmul.cl:124:16
	addl	%r9d, %r14d
.Ltmp60:
	#DEBUG_VALUE: k <- 28+0
	addl	%edx, %r14d
.Ltmp61:
	#DEBUG_VALUE: k <- 25+0
	addl	%edi, %r14d
.Ltmp62:
	#DEBUG_VALUE: k <- 26+0
	addl	%r13d, %r14d
.Ltmp63:
	#DEBUG_VALUE: k <- 27+0
	movl	-9216(%r10), %edx
	.loc	1 124 38                # /home/centos/workspace/arrayb_block_partitioning/src/matmul.cl:124:38
	imull	356(%rsp), %edx         # 4-byte Folded Reload
	movl	-9472(%r10), %esi
	imull	352(%rsp), %esi         # 4-byte Folded Reload
	movl	-9728(%r10), %eax
	imull	348(%rsp), %eax         # 4-byte Folded Reload
	movl	-8960(%r10), %edi
	imull	360(%rsp), %edi         # 4-byte Folded Reload
	.loc	1 124 16                # /home/centos/workspace/arrayb_block_partitioning/src/matmul.cl:124:16
	addl	%ebx, %r14d
.Ltmp64:
	#DEBUG_VALUE: k <- 33+0
	addl	%ecx, %r14d
.Ltmp65:
	#DEBUG_VALUE: k <- 34+0
	addl	%r8d, %r14d
.Ltmp66:
	#DEBUG_VALUE: k <- 35+0
	addl	%r12d, %r14d
.Ltmp67:
	#DEBUG_VALUE: k <- 36+0
	addl	%r15d, %r14d
.Ltmp68:
	#DEBUG_VALUE: k <- 29+0
	addl	%eax, %r14d
.Ltmp69:
	#DEBUG_VALUE: k <- 30+0
	addl	%esi, %r14d
.Ltmp70:
	#DEBUG_VALUE: k <- 31+0
	addl	%edx, %r14d
.Ltmp71:
	#DEBUG_VALUE: k <- 32+0
	movl	-7936(%r10), %r9d
	.loc	1 124 38                # /home/centos/workspace/arrayb_block_partitioning/src/matmul.cl:124:38
	imull	376(%rsp), %r9d         # 4-byte Folded Reload
	movl	-8192(%r10), %eax
	imull	372(%rsp), %eax         # 4-byte Folded Reload
	movl	-8448(%r10), %esi
	imull	368(%rsp), %esi         # 4-byte Folded Reload
	movl	-8704(%r10), %edx
	imull	364(%rsp), %edx         # 4-byte Folded Reload
	.loc	1 124 16                # /home/centos/workspace/arrayb_block_partitioning/src/matmul.cl:124:16
	addl	%edi, %r14d
.Ltmp72:
	#DEBUG_VALUE: k <- 38+0
	movl	-6400(%r10), %r15d
	.loc	1 124 38                # /home/centos/workspace/arrayb_block_partitioning/src/matmul.cl:124:38
	imull	400(%rsp), %r15d        # 4-byte Folded Reload
	movl	-6912(%r10), %ebx
	imull	392(%rsp), %ebx         # 4-byte Folded Reload
	movl	-7168(%r10), %r12d
	imull	388(%rsp), %r12d        # 4-byte Folded Reload
	movl	-7424(%r10), %edi
	imull	384(%rsp), %edi         # 4-byte Folded Reload
	movl	-7680(%r10), %ecx
	imull	380(%rsp), %ecx         # 4-byte Folded Reload
	.loc	1 124 16                # /home/centos/workspace/arrayb_block_partitioning/src/matmul.cl:124:16
	addl	%edx, %r14d
.Ltmp73:
	#DEBUG_VALUE: k <- 41+0
	addl	%esi, %r14d
.Ltmp74:
	#DEBUG_VALUE: k <- 37+0
	addl	%eax, %r14d
.Ltmp75:
	#DEBUG_VALUE: k <- 39+0
	addl	%r9d, %r14d
.Ltmp76:
	#DEBUG_VALUE: k <- 40+0
	movl	-5888(%r10), %r13d
	.loc	1 124 38                # /home/centos/workspace/arrayb_block_partitioning/src/matmul.cl:124:38
	imull	408(%rsp), %r13d        # 4-byte Folded Reload
	movl	-6144(%r10), %edx
	imull	404(%rsp), %edx         # 4-byte Folded Reload
	movl	-6656(%r10), %esi
	imull	396(%rsp), %esi         # 4-byte Folded Reload
	movl	-5632(%r10), %eax
	imull	412(%rsp), %eax         # 4-byte Folded Reload
	.loc	1 124 16                # /home/centos/workspace/arrayb_block_partitioning/src/matmul.cl:124:16
	addl	%ecx, %r14d
.Ltmp77:
	#DEBUG_VALUE: k <- 43+0
	addl	%edi, %r14d
.Ltmp78:
	#DEBUG_VALUE: k <- 45+0
	addl	%r12d, %r14d
.Ltmp79:
	#DEBUG_VALUE: k <- 46+0
	addl	%ebx, %r14d
.Ltmp80:
	#DEBUG_VALUE: k <- 44+0
	addl	%esi, %r14d
.Ltmp81:
	#DEBUG_VALUE: k <- 42+0
	movl	-5376(%r10), %edi
	.loc	1 124 38                # /home/centos/workspace/arrayb_block_partitioning/src/matmul.cl:124:38
	imull	416(%rsp), %edi         # 4-byte Folded Reload
	movl	-4864(%r10), %r12d
	imull	424(%rsp), %r12d        # 4-byte Folded Reload
	.loc	1 124 16                # /home/centos/workspace/arrayb_block_partitioning/src/matmul.cl:124:16
	addl	%r15d, %r14d
.Ltmp82:
	#DEBUG_VALUE: k <- 48+0
	addl	%edx, %r14d
.Ltmp83:
	#DEBUG_VALUE: k <- 49+0
	movl	-4352(%r10), %r8d
	.loc	1 124 38                # /home/centos/workspace/arrayb_block_partitioning/src/matmul.cl:124:38
	imull	432(%rsp), %r8d         # 4-byte Folded Reload
	movl	-4608(%r10), %ecx
	imull	428(%rsp), %ecx         # 4-byte Folded Reload
	movl	-5120(%r10), %esi
	imull	420(%rsp), %esi         # 4-byte Folded Reload
	.loc	1 124 16                # /home/centos/workspace/arrayb_block_partitioning/src/matmul.cl:124:16
	addl	%r13d, %r14d
.Ltmp84:
	#DEBUG_VALUE: k <- 51+0
	addl	%eax, %r14d
.Ltmp85:
	#DEBUG_VALUE: k <- 47+0
	addl	%edi, %r14d
.Ltmp86:
	#DEBUG_VALUE: k <- 50+0
	movl	-3328(%r10), %r13d
	.loc	1 124 38                # /home/centos/workspace/arrayb_block_partitioning/src/matmul.cl:124:38
	imull	448(%rsp), %r13d        # 4-byte Folded Reload
	movl	-3584(%r10), %edi
	imull	444(%rsp), %edi         # 4-byte Folded Reload
	movl	-3840(%r10), %ebx
	imull	440(%rsp), %ebx         # 4-byte Folded Reload
	movl	-4096(%r10), %edx
	imull	436(%rsp), %edx         # 4-byte Folded Reload
	movl	-3072(%r10), %eax
	imull	452(%rsp), %eax         # 4-byte Folded Reload
	.loc	1 124 16                # /home/centos/workspace/arrayb_block_partitioning/src/matmul.cl:124:16
	addl	%esi, %r14d
.Ltmp87:
	#DEBUG_VALUE: k <- 54+0
	addl	%r12d, %r14d
.Ltmp88:
	#DEBUG_VALUE: k <- 55+0
	addl	%ecx, %r14d
.Ltmp89:
	#DEBUG_VALUE: k <- 56+0
	addl	%r8d, %r14d
.Ltmp90:
	#DEBUG_VALUE: k <- 52+0
	addl	%edx, %r14d
.Ltmp91:
	#DEBUG_VALUE: k <- 53+0
	movl	-2560(%r10), %ecx
	.loc	1 124 38                # /home/centos/workspace/arrayb_block_partitioning/src/matmul.cl:124:38
	imull	460(%rsp), %ecx         # 4-byte Folded Reload
	movl	-2816(%r10), %edx
	imull	456(%rsp), %edx         # 4-byte Folded Reload
	.loc	1 124 16                # /home/centos/workspace/arrayb_block_partitioning/src/matmul.cl:124:16
	addl	%ebx, %r14d
.Ltmp92:
	#DEBUG_VALUE: k <- 61+0
	addl	%edi, %r14d
.Ltmp93:
	#DEBUG_VALUE: k <- 62+0
	movl	-1792(%r10), %r15d
	.loc	1 124 38                # /home/centos/workspace/arrayb_block_partitioning/src/matmul.cl:124:38
	imull	472(%rsp), %r15d        # 4-byte Folded Reload
	movl	-2048(%r10), %r8d
	imull	468(%rsp), %r8d         # 4-byte Folded Reload
	movl	-2304(%r10), %edi
	imull	464(%rsp), %edi         # 4-byte Folded Reload
	.loc	1 124 16                # /home/centos/workspace/arrayb_block_partitioning/src/matmul.cl:124:16
	addl	%r13d, %r14d
.Ltmp94:
	#DEBUG_VALUE: k <- 57+0
	addl	%eax, %r14d
.Ltmp95:
	#DEBUG_VALUE: k <- 58+0
	addl	%edx, %r14d
.Ltmp96:
	#DEBUG_VALUE: k <- 59+0
	addl	%ecx, %r14d
.Ltmp97:
	#DEBUG_VALUE: k <- 60+0
	movl	(%r10), %r13d
	.loc	1 124 38                # /home/centos/workspace/arrayb_block_partitioning/src/matmul.cl:124:38
	imull	500(%rsp), %r13d        # 4-byte Folded Reload
	movl	-256(%r10), %r9d
	imull	496(%rsp), %r9d         # 4-byte Folded Reload
	movl	-512(%r10), %eax
	imull	492(%rsp), %eax         # 4-byte Folded Reload
	movl	-768(%r10), %ecx
	imull	488(%rsp), %ecx         # 4-byte Folded Reload
	movl	-1024(%r10), %ebx
	imull	484(%rsp), %ebx         # 4-byte Folded Reload
	movl	-1280(%r10), %esi
	imull	480(%rsp), %esi         # 4-byte Folded Reload
	movl	-1536(%r10), %edx
	imull	476(%rsp), %edx         # 4-byte Folded Reload
.Ltmp98:
	.loc	1 120 29                # /home/centos/workspace/arrayb_block_partitioning/src/matmul.cl:120:29
	addq	$4, %r10
	.loc	1 124 16                # /home/centos/workspace/arrayb_block_partitioning/src/matmul.cl:124:16
.Ltmp99:
	addl	%edi, %r14d
	addl	%r8d, %r14d
	addl	%r15d, %r14d
	addl	%edx, %r14d
	addl	%esi, %r14d
	addl	%ebx, %r14d
	addl	%ecx, %r14d
	addl	%eax, %r14d
	movq	504(%rsp), %rax         # 8-byte Reload
	addl	%r9d, %r14d
	addl	%r13d, %r14d
.Ltmp100:
	.loc	1 120 29                # /home/centos/workspace/arrayb_block_partitioning/src/matmul.cl:120:29
	decq	%rax
.Ltmp101:
	#DEBUG_VALUE: k <- 64+0
	#DEBUG_VALUE: result <- R14D+0
	.loc	1 126 26                # /home/centos/workspace/arrayb_block_partitioning/src/matmul.cl:126:26
	movl	%r14d, (%r11)
.Ltmp102:
	.loc	1 120 29                # /home/centos/workspace/arrayb_block_partitioning/src/matmul.cl:120:29
	leaq	4(%r11), %r11
.Ltmp103:
	.loc	1 120 11                # /home/centos/workspace/arrayb_block_partitioning/src/matmul.cl:120:11
	jne	.LBB0_8
.Ltmp104:
# BB#9:                                 # %._crit_edge11
                                        #   in Loop: Header=BB0_7 Depth=1
	#DEBUG_VALUE: matmul_partition:out_r <- [%rsp+$200]+$0
	#DEBUG_VALUE: matmul_partition:dim <- [%rsp+$212]+$0
	#DEBUG_VALUE: i <- 0+0
	#DEBUG_VALUE: j <- 0+0
	movq	232(%rsp), %rdx         # 8-byte Reload
	.loc	1 115 9                 # /home/centos/workspace/arrayb_block_partitioning/src/matmul.cl:115:9
	addq	$256, %rdx              # imm = 0x100
	movq	240(%rsp), %rcx         # 8-byte Reload
	.loc	1 115 35                # /home/centos/workspace/arrayb_block_partitioning/src/matmul.cl:115:35
.Ltmp105:
	incq	%rcx
.Ltmp106:
	#DEBUG_VALUE: i <- RCX+0
	movq	224(%rsp), %rax         # 8-byte Reload
	cmpq	%rax, %rcx
	jne	.LBB0_7
.Ltmp107:
.LBB0_10:                               # %._crit_edge16.loopexit
	#DEBUG_VALUE: matmul_partition:out_r <- [%rsp+$200]+$0
	#DEBUG_VALUE: matmul_partition:dim <- [%rsp+$212]+$0
	movq	216(%rsp), %r10         # 8-byte Reload
	.loc	1 134 45                # /home/centos/workspace/arrayb_block_partitioning/src/matmul.cl:134:45
.Ltmp108:
	testl	%r10d, %r10d
.Ltmp109:
	#DEBUG_VALUE: j <- 0+0
	#DEBUG_VALUE: i <- 0+0
	#DEBUG_VALUE: itr <- 0+0
	movl	212(%rsp), %r9d         # 4-byte Reload
.Ltmp110:
	#DEBUG_VALUE: matmul_partition:dim <- R9D+0
	movq	200(%rsp), %rdi         # 8-byte Reload
.Ltmp111:
	#DEBUG_VALUE: matmul_partition:out_r <- RDI+0
	je	.LBB0_13
# BB#11:                                # %.split.preheader
.Ltmp112:
	#DEBUG_VALUE: matmul_partition:out_r <- RDI+0
	#DEBUG_VALUE: matmul_partition:dim <- R9D+0
	#DEBUG_VALUE: itr <- 0+0
	#DEBUG_VALUE: i <- 0+0
	#DEBUG_VALUE: j <- 0+0
	xorl	%r8d, %r8d
	xorl	%ecx, %ecx
	xorl	%edx, %edx
.Ltmp113:
	.align	16, 0x90
.LBB0_12:                               # %.split
                                        # =>This Inner Loop Header: Depth=1
	#DEBUG_VALUE: matmul_partition:dim <- R9D+0
	#DEBUG_VALUE: itr <- 0+0
	#DEBUG_VALUE: i <- 0+0
	#DEBUG_VALUE: j <- 0+0
	.loc	1 135 11                # /home/centos/workspace/arrayb_block_partitioning/src/matmul.cl:135:11
	cmpl	%r9d, %edx
.Ltmp114:
	.loc	1 135 9                 # /home/centos/workspace/arrayb_block_partitioning/src/matmul.cl:135:9
	cmovel	%r8d, %edx
.Ltmp115:
	#DEBUG_VALUE: j <- EDX+0
	.loc	1 135 11                # /home/centos/workspace/arrayb_block_partitioning/src/matmul.cl:135:11
	sete	%al
.Ltmp116:
	.loc	1 135 9                 # /home/centos/workspace/arrayb_block_partitioning/src/matmul.cl:135:9
	movzbl	%al, %esi
	addl	%esi, %ecx
.Ltmp117:
	#DEBUG_VALUE: i <- ESI+0
	.loc	1 139 22                # /home/centos/workspace/arrayb_block_partitioning/src/matmul.cl:139:22
	movl	%ecx, %esi
.Ltmp118:
	shll	$6, %esi
	.loc	1 139 32                # /home/centos/workspace/arrayb_block_partitioning/src/matmul.cl:139:32
	addl	%edx, %esi
	.loc	1 139 18                # /home/centos/workspace/arrayb_block_partitioning/src/matmul.cl:139:18
	movslq	%esi, %rax
	movl	512(%rsp,%rax,4), %esi
.Ltmp119:
	.loc	1 134 66                # /home/centos/workspace/arrayb_block_partitioning/src/matmul.cl:134:66
	incl	%edx
.Ltmp120:
	.loc	1 134 45                # /home/centos/workspace/arrayb_block_partitioning/src/matmul.cl:134:45
	decq	%r10
	.loc	1 139 16                # /home/centos/workspace/arrayb_block_partitioning/src/matmul.cl:139:16
.Ltmp121:
	movl	%esi, (%rdi)
.Ltmp122:
	.loc	1 134 45                # /home/centos/workspace/arrayb_block_partitioning/src/matmul.cl:134:45
	leaq	4(%rdi), %rdi
.Ltmp123:
	#DEBUG_VALUE: i <- ECX+0
	.loc	1 134 9                 # /home/centos/workspace/arrayb_block_partitioning/src/matmul.cl:134:9
	jne	.LBB0_12
.Ltmp124:
.LBB0_13:                               # %._crit_edge.loopexit
	.loc	1 141 1                 # /home/centos/workspace/arrayb_block_partitioning/src/matmul.cl:141:1
	addq	$50136, %rsp            # imm = 0xC3D8
	popq	%rbx
	popq	%r12
	popq	%r13
	popq	%r14
	popq	%r15
	movq	%rbp, %rsp
	popq	%rbp
	ret
.Ltmp125:
.Ltmp126:
	.size	matmul_partition, .Ltmp126-matmul_partition
.Lfunc_end0:
	.cfi_endproc

	.globl	__stub____xlnx_cl_single_thread_matmul_partition
	.align	16, 0x90
	.type	__stub____xlnx_cl_single_thread_matmul_partition,@function
__stub____xlnx_cl_single_thread_matmul_partition: # @__stub____xlnx_cl_single_thread_matmul_partition
	.cfi_startproc
.Lfunc_begin1:
	.loc	1 76 0                  # /home/centos/workspace/arrayb_block_partitioning/src/matmul.cl:76:0
# BB#0:
	.loc	1 73 0 prologue_end     # /home/centos/workspace/arrayb_block_partitioning/src/matmul.cl:73:0
	movq	32(%rdi), %rax
	movl	(%rax), %r8d
	movq	24(%rdi), %rax
	movq	(%rax), %rcx
	movq	8(%rdi), %rax
	movq	16(%rdi), %rdx
	movq	(%rdx), %rdx
	movq	(%rax), %rsi
	jmp	matmul_partition@PLT    # TAILCALL
.Ltmp127:
.Ltmp128:
	.size	__stub____xlnx_cl_single_thread_matmul_partition, .Ltmp128-__stub____xlnx_cl_single_thread_matmul_partition
.Lfunc_end1:
	.cfi_endproc

	.type	c_size,@object          # @c_size
	.section	.rodata.c_size,"aG",@progbits,c_size,comdat
	.weak	c_size
	.align	128
c_size:
	.long	64                      # 0x40
	.size	c_size, 4

	.cfi_sections .debug_frame
	.text
.Ltext_end:
	.data
.Ldata_end:
	.text
.Lsection_end1:
	.section	".note.GNU-stack","",@progbits
