	.file	"/home/centos/workspace/arrayb_block_partitioning/Emulation-SW/matmul.build/link/int/matmul_naive/matmul_naive.clc.csim_cu-opt.bc"
	.file	1 "/home/centos/workspace/arrayb_block_partitioning/src/matmul.cl"
	.text
.Ltext_begin:
	.data
	.text
	.globl	matmul_naive
	.align	16, 0x90
	.type	matmul_naive,@function
matmul_naive:                           # @matmul_naive
	.cfi_startproc
.Lfunc_begin0:
	.loc	1 30 0                  # /home/centos/workspace/arrayb_block_partitioning/src/matmul.cl:30:0
# BB#0:
	pushq	%rbp
.Ltmp7:
	.cfi_def_cfa_offset 16
	pushq	%r15
.Ltmp8:
	.cfi_def_cfa_offset 24
	pushq	%r14
.Ltmp9:
	.cfi_def_cfa_offset 32
	pushq	%r13
.Ltmp10:
	.cfi_def_cfa_offset 40
	pushq	%r12
.Ltmp11:
	.cfi_def_cfa_offset 48
	pushq	%rbx
.Ltmp12:
	.cfi_def_cfa_offset 56
	subq	$24, %rsp
.Ltmp13:
	.cfi_def_cfa_offset 80
.Ltmp14:
	.cfi_offset %rbx, -56
.Ltmp15:
	.cfi_offset %r12, -48
.Ltmp16:
	.cfi_offset %r13, -40
.Ltmp17:
	.cfi_offset %r14, -32
.Ltmp18:
	.cfi_offset %r15, -24
.Ltmp19:
	.cfi_offset %rbp, -16
	#DEBUG_VALUE: matmul_naive:in1 <- RSI+0
	#DEBUG_VALUE: matmul_naive:in2 <- RDX+0
	#DEBUG_VALUE: matmul_naive:out_r <- RCX+0
	#DEBUG_VALUE: matmul_naive:dim <- R8D+0
	movl	%r8d, %ebp
.Ltmp20:
	#DEBUG_VALUE: matmul_naive:dim <- EBP+0
	movq	%rcx, 16(%rsp)          # 8-byte Spill
.Ltmp21:
	#DEBUG_VALUE: matmul_naive:out_r <- [%rsp+$16]+$0
	movq	%rdx, %r15
.Ltmp22:
	#DEBUG_VALUE: matmul_naive:in2 <- R15+0
	movl	%ebp, %r14d
	imull	%r14d, %r14d
	testl	%r14d, %r14d
.Ltmp23:
	#DEBUG_VALUE: i <- 0+0
	jle	.LBB0_2
# BB#1:                                 # %._crit_edge19.loopexit
.Ltmp24:
	#DEBUG_VALUE: matmul_naive:in1 <- RSI+0
	#DEBUG_VALUE: matmul_naive:in2 <- R15+0
	#DEBUG_VALUE: matmul_naive:out_r <- [%rsp+$16]+$0
	#DEBUG_VALUE: matmul_naive:dim <- EBP+0
	#DEBUG_VALUE: i <- 0+0
	movl	%r14d, %ebx
	.loc	1 39 9 prologue_end     # /home/centos/workspace/arrayb_block_partitioning/src/matmul.cl:39:9
.Ltmp25:
	shlq	$2, %rbx
	.loc	1 40 10                 # /home/centos/workspace/arrayb_block_partitioning/src/matmul.cl:40:10
.Ltmp26:
	movq	matmul_naive.A@GOTPCREL(%rip), %rdi
	movq	%rbx, %rdx
	callq	memcpy@PLT
.Ltmp27:
	.loc	1 47 10                 # /home/centos/workspace/arrayb_block_partitioning/src/matmul.cl:47:10
	movq	matmul_naive.B@GOTPCREL(%rip), %rdi
	movq	%r15, %rsi
.Ltmp28:
	movq	%rbx, %rdx
	callq	memcpy@PLT
.Ltmp29:
.LBB0_2:                                # %._crit_edge19
	#DEBUG_VALUE: matmul_naive:out_r <- [%rsp+$16]+$0
	#DEBUG_VALUE: matmul_naive:dim <- EBP+0
	#DEBUG_VALUE: i <- 0+0
	movl	%r14d, 12(%rsp)         # 4-byte Spill
	.loc	1 51 9                  # /home/centos/workspace/arrayb_block_partitioning/src/matmul.cl:51:9
.Ltmp30:
	testl	%ebp, %ebp
	je	.LBB0_9
# BB#3:                                 # %.split5.preheader
	#DEBUG_VALUE: matmul_naive:out_r <- [%rsp+$16]+$0
.Ltmp31:
	#DEBUG_VALUE: matmul_naive:dim <- EBP+0
	#DEBUG_VALUE: i <- 0+0
	movl	%ebp, %r14d
	movslq	%ebp, %r9
	.loc	1 51 18                 # /home/centos/workspace/arrayb_block_partitioning/src/matmul.cl:51:18
	leaq	(,%r9,4), %rdx
	xorl	%r8d, %r8d
	movq	matmul_naive.A@GOTPCREL(%rip), %rbx
	movq	matmul_naive.B@GOTPCREL(%rip), %r10
	.loc	1 60 7                  # /home/centos/workspace/arrayb_block_partitioning/src/matmul.cl:60:7
.Ltmp32:
	movq	matmul_naive.C@GOTPCREL(%rip), %r11
	xorl	%r15d, %r15d
.Ltmp33:
	.align	16, 0x90
.LBB0_4:                                # %.split5
                                        # =>This Loop Header: Depth=1
                                        #     Child Loop BB0_5 Depth 2
                                        #       Child Loop BB0_6 Depth 3
	#DEBUG_VALUE: matmul_naive:out_r <- [%rsp+$16]+$0
	#DEBUG_VALUE: i <- 0+0
	movq	%r15, %rcx
	imulq	%r9, %rcx
.Ltmp34:
	#DEBUG_VALUE: j <- 0+0
	movq	%r8, %rsi
	.align	16, 0x90
.LBB0_5:                                # %.split2.lr.ph
                                        #   Parent Loop BB0_4 Depth=1
                                        # =>  This Loop Header: Depth=2
                                        #       Child Loop BB0_6 Depth 3
	#DEBUG_VALUE: matmul_naive:out_r <- [%rsp+$16]+$0
	#DEBUG_VALUE: i <- 0+0
	#DEBUG_VALUE: j <- 0+0
	xorl	%ebp, %ebp
	.loc	1 51 9                  # /home/centos/workspace/arrayb_block_partitioning/src/matmul.cl:51:9
	movq	%rbx, %rdi
	.loc	1 57 31                 # /home/centos/workspace/arrayb_block_partitioning/src/matmul.cl:57:31
.Ltmp35:
	movq	%r10, %rax
	movq	%r14, %r13
	.align	16, 0x90
.LBB0_6:                                # %.split2
                                        #   Parent Loop BB0_4 Depth=1
                                        #     Parent Loop BB0_5 Depth=2
                                        # =>    This Inner Loop Header: Depth=3
	#DEBUG_VALUE: matmul_naive:out_r <- [%rsp+$16]+$0
	#DEBUG_VALUE: i <- 0+0
	#DEBUG_VALUE: j <- 0+0
	.loc	1 58 36                 # /home/centos/workspace/arrayb_block_partitioning/src/matmul.cl:58:36
.Ltmp36:
	movl	(%rax,%rsi,4), %r12d
.Ltmp37:
	.loc	1 57 31                 # /home/centos/workspace/arrayb_block_partitioning/src/matmul.cl:57:31
	addq	%rdx, %rax
	.loc	1 58 34                 # /home/centos/workspace/arrayb_block_partitioning/src/matmul.cl:58:34
.Ltmp38:
	imull	(%rdi), %r12d
	.loc	1 58 16                 # /home/centos/workspace/arrayb_block_partitioning/src/matmul.cl:58:16
	addl	%r12d, %ebp
.Ltmp39:
	#DEBUG_VALUE: result <- R12D+0
	.loc	1 57 31                 # /home/centos/workspace/arrayb_block_partitioning/src/matmul.cl:57:31
	addq	$4, %rdi
	decq	%r13
.Ltmp40:
	.loc	1 57 13                 # /home/centos/workspace/arrayb_block_partitioning/src/matmul.cl:57:13
	jne	.LBB0_6
.Ltmp41:
# BB#7:                                 # %._crit_edge8
                                        #   in Loop: Header=BB0_5 Depth=2
	#DEBUG_VALUE: matmul_naive:out_r <- [%rsp+$16]+$0
	#DEBUG_VALUE: i <- 0+0
	#DEBUG_VALUE: j <- 0+0
	#DEBUG_VALUE: result <- R12D+0
	.loc	1 60 17                 # /home/centos/workspace/arrayb_block_partitioning/src/matmul.cl:60:17
	leaq	(%rsi,%rcx), %rax
	.loc	1 60 22                 # /home/centos/workspace/arrayb_block_partitioning/src/matmul.cl:60:22
	movl	%ebp, (%r11,%rax,4)
.Ltmp42:
	.loc	1 53 41                 # /home/centos/workspace/arrayb_block_partitioning/src/matmul.cl:53:41
	incq	%rsi
.Ltmp43:
	#DEBUG_VALUE: j <- RSI+0
	cmpq	$64, %rsi
	jne	.LBB0_5
.Ltmp44:
# BB#8:                                 #   in Loop: Header=BB0_4 Depth=1
	#DEBUG_VALUE: matmul_naive:out_r <- [%rsp+$16]+$0
	#DEBUG_VALUE: i <- 0+0
	.loc	1 51 9                  # /home/centos/workspace/arrayb_block_partitioning/src/matmul.cl:51:9
	addq	%rdx, %rbx
	.loc	1 51 35                 # /home/centos/workspace/arrayb_block_partitioning/src/matmul.cl:51:35
.Ltmp45:
	incq	%r15
.Ltmp46:
	#DEBUG_VALUE: i <- R15+0
	cmpq	%r14, %r15
	jne	.LBB0_4
.Ltmp47:
.LBB0_9:                                # %._crit_edge14.loopexit
	#DEBUG_VALUE: matmul_naive:out_r <- [%rsp+$16]+$0
	movl	12(%rsp), %eax          # 4-byte Reload
	.loc	1 67 27                 # /home/centos/workspace/arrayb_block_partitioning/src/matmul.cl:67:27
.Ltmp48:
	testl	%eax, %eax
.Ltmp49:
	#DEBUG_VALUE: i <- 0+0
	je	.LBB0_11
.Ltmp50:
# BB#10:                                # %.split.lr.ph
	#DEBUG_VALUE: matmul_naive:out_r <- [%rsp+$16]+$0
	#DEBUG_VALUE: i <- 0+0
	movl	%eax, %edx
	.loc	1 67 9                  # /home/centos/workspace/arrayb_block_partitioning/src/matmul.cl:67:9
	shlq	$2, %rdx
	.loc	1 68 14                 # /home/centos/workspace/arrayb_block_partitioning/src/matmul.cl:68:14
.Ltmp51:
	movq	matmul_naive.C@GOTPCREL(%rip), %rsi
	movq	16(%rsp), %rdi          # 8-byte Reload
	callq	memcpy@PLT
.Ltmp52:
.LBB0_11:                               # %._crit_edge.loopexit
	.loc	1 70 1                  # /home/centos/workspace/arrayb_block_partitioning/src/matmul.cl:70:1
	addq	$24, %rsp
	popq	%rbx
	popq	%r12
	popq	%r13
	popq	%r14
	popq	%r15
	popq	%rbp
	ret
.Ltmp53:
.Ltmp54:
	.size	matmul_naive, .Ltmp54-matmul_naive
.Lfunc_end0:
	.cfi_endproc

	.globl	__stub____xlnx_cl_single_thread_matmul_naive
	.align	16, 0x90
	.type	__stub____xlnx_cl_single_thread_matmul_naive,@function
__stub____xlnx_cl_single_thread_matmul_naive: # @__stub____xlnx_cl_single_thread_matmul_naive
	.cfi_startproc
.Lfunc_begin1:
	.loc	1 30 0                  # /home/centos/workspace/arrayb_block_partitioning/src/matmul.cl:30:0
# BB#0:
	.loc	1 26 0 prologue_end     # /home/centos/workspace/arrayb_block_partitioning/src/matmul.cl:26:0
	movq	32(%rdi), %rax
	movl	(%rax), %r8d
	movq	24(%rdi), %rax
	movq	(%rax), %rcx
	movq	8(%rdi), %rax
	movq	16(%rdi), %rdx
	movq	(%rdx), %rdx
	movq	(%rax), %rsi
	jmp	matmul_naive@PLT        # TAILCALL
.Ltmp55:
.Ltmp56:
	.size	__stub____xlnx_cl_single_thread_matmul_naive, .Ltmp56-__stub____xlnx_cl_single_thread_matmul_naive
.Lfunc_end1:
	.cfi_endproc

	.type	c_size,@object          # @c_size
	.section	.rodata.c_size,"aG",@progbits,c_size,comdat
	.weak	c_size
	.align	128
c_size:
	.long	64                      # 0x40
	.size	c_size, 4

	.type	matmul_naive.A,@object  # @matmul_naive.A
	.section	.bss.matmul_naive.A,"aGw",@nobits,matmul_naive.A,comdat
	.weak	matmul_naive.A
	.align	512
matmul_naive.A:
	.zero	16384
	.size	matmul_naive.A, 16384

	.type	matmul_naive.B,@object  # @matmul_naive.B
	.section	.bss.matmul_naive.B,"aGw",@nobits,matmul_naive.B,comdat
	.weak	matmul_naive.B
	.align	512
matmul_naive.B:
	.zero	16384
	.size	matmul_naive.B, 16384

	.type	matmul_naive.C,@object  # @matmul_naive.C
	.section	.bss.matmul_naive.C,"aGw",@nobits,matmul_naive.C,comdat
	.weak	matmul_naive.C
	.align	512
matmul_naive.C:
	.zero	16384
	.size	matmul_naive.C, 16384

	.cfi_sections .debug_frame
	.text
.Ltext_end:
	.data
.Ldata_end:
	.text
.Lsection_end1:
	.section	".note.GNU-stack","",@progbits
